target datalayout = "e-m:e-p270:32:32-p271:32:32-p272:64:64-i64:64-i128:128-f80:128-n8:16:32:64-S128"
target triple = "x86_64-pc-linux-gnu"

%struct.u_scanf_spec_info = type { i32, i16, i16, i8, i8, i8, i8, i8, i8 }

; Function Attrs: mustprogress uwtable
define internal noundef i32 @_ZL21u_scanf_uchar_handlerP5UFILEP17u_scanf_spec_infoP9ufmt_argsPKDsPiS7_(ptr noundef %0, ptr noundef %1, ptr noundef %2, ptr noundef %3, ptr noundef %4, ptr noundef %5) #0 {
  %7 = alloca ptr, align 8
  %8 = alloca ptr, align 8
  %9 = alloca ptr, align 8
  %10 = alloca ptr, align 8
  %11 = alloca ptr, align 8
  %12 = alloca ptr, align 8
  store ptr %0, ptr %7, align 8, !tbaa !3
  store ptr %1, ptr %8, align 8, !tbaa !35
  store ptr %2, ptr %9, align 8, !tbaa !50
  store ptr %3, ptr %10, align 8, !tbaa !8
  store ptr %4, ptr %11, align 8, !tbaa !52
  store ptr %5, ptr %12, align 8, !tbaa !52
  %13 = load ptr, ptr %8, align 8, !tbaa !35
  %14 = getelementptr inbounds nuw %struct.u_scanf_spec_info, ptr %13, i32 0, i32 0
  %15 = load i32, ptr %14, align 4, !tbaa !38
  %16 = icmp slt i32 %15, 0
  br i1 %16, label %17, label %20

17:                                               ; preds = %6
  %18 = load ptr, ptr %8, align 8, !tbaa !35
  %19 = getelementptr inbounds nuw %struct.u_scanf_spec_info, ptr %18, i32 0, i32 0
  store i32 1, ptr %19, align 4, !tbaa !38
  br label %20

20:                                               ; preds = %17, %6
  %21 = load ptr, ptr %8, align 8, !tbaa !35
  %22 = getelementptr inbounds nuw %struct.u_scanf_spec_info, ptr %21, i32 0, i32 8
  store i8 0, ptr %22, align 1, !tbaa !46
  %23 = load ptr, ptr %7, align 8, !tbaa !3
  %24 = load ptr, ptr %8, align 8, !tbaa !35
  %25 = load ptr, ptr %9, align 8, !tbaa !50
  %26 = load ptr, ptr %10, align 8, !tbaa !8
  %27 = load ptr, ptr %11, align 8, !tbaa !52
  %28 = load ptr, ptr %12, align 8, !tbaa !52
  %29 = call noundef i32 @_ZL23u_scanf_ustring_handlerP5UFILEP17u_scanf_spec_infoP9ufmt_argsPKDsPiS7_(ptr noundef %23, ptr noundef %24, ptr noundef %25, ptr noundef %26, ptr noundef %27, ptr noundef %28)
  ret i32 %29
}