; Function Attrs: mustprogress uwtable
define internal noundef i32 @_ZL21u_scanf_uchar_handlerP5UFILEP17u_scanf_spec_infoP9ufmt_argsPKDsPiS7_(ptr noundef %0, ptr noundef captures(none) initializes((13, 14)) %1, ptr noundef readonly captures(none) %2, ptr noundef readnone captures(none) %3, ptr noundef readnone captures(none) %4, ptr noundef writeonly captures(none) %5) #0 {
  %7 = load i32, ptr %1, align 4, !tbaa !14
  %8 = icmp slt i32 %7, 0
  br i1 %8, label %9, label %10

9:                                                ; preds = %6
  store i32 1, ptr %1, align 4, !tbaa !14
  br label %10

10:                                               ; preds = %9, %6
  %11 = getelementptr inbounds nuw i8, ptr %1, i64 13
  store i8 0, ptr %11, align 1, !tbaa !17
  %12 = tail call noundef i32 @_ZL23u_scanf_ustring_handlerP5UFILEP17u_scanf_spec_infoP9ufmt_argsPKDsPiS7_(ptr noundef %0, ptr noundef nonnull %1, ptr noundef %2, ptr poison, ptr poison, ptr noundef %5)
  ret i32 %12
}